; Function Attrs: mustprogress nofree norecurse nounwind willreturn uwtable
define void @_ZNK5arrow3ipc7Message8metadataEv(ptr dead_on_unwind noalias writable writeonly sret(%"class.std::shared_ptr") align 8 captures(none) initializes((0, 16)) %0, ptr noundef nonnull readonly align 8 captures(none) dereferenceable(8) %1) local_unnamed_addr #5 align 2 personality ptr @__gxx_personality_v0 {
  %3 = load ptr, ptr %1, align 8, !tbaa !15
  tail call void @llvm.experimental.noalias.scope.decl(metadata !93)
  %4 = load ptr, ptr %3, align 8, !tbaa !9, !noalias !93
  store ptr %4, ptr %0, align 8, !tbaa !9, !alias.scope !93
  %5 = getelementptr inbounds nuw i8, ptr %0, i64 8
  %6 = getelementptr inbounds nuw i8, ptr %3, i64 8
  %7 = load ptr, ptr %6, align 8, !tbaa !14, !noalias !93
  store ptr %7, ptr %5, align 8, !tbaa !14, !alias.scope !93
  %.not.i.i.i.i = icmp eq ptr %7, null
  br i1 %.not.i.i.i.i, label %_ZNK5arrow3ipc7Message11MessageImpl8metadataEv.exit, label %8

8:                                                ; preds = %2
  %9 = getelementptr inbounds nuw i8, ptr %7, i64 8
  %10 = load i8, ptr @__libc_single_threaded, align 1, !tbaa !22, !noalias !93
  %.not.i.i.i.i.i = icmp eq i8 %10, 0
  br i1 %.not.i.i.i.i.i, label %14, label %11

11:                                               ; preds = %8
  %12 = load i32, ptr %9, align 4, !tbaa !23, !noalias !93
  %13 = add nsw i32 %12, 1
  store i32 %13, ptr %9, align 4, !tbaa !23, !noalias !93
  br label %_ZNK5arrow3ipc7Message11MessageImpl8metadataEv.exit

14:                                               ; preds = %8
  %15 = atomicrmw volatile add ptr %9, i32 1 acq_rel, align 4, !noalias !93
  br label %_ZNK5arrow3ipc7Message11MessageImpl8metadataEv.exit

_ZNK5arrow3ipc7Message11MessageImpl8metadataEv.exit: ; preds = %2, %11, %14
  ret void
}